; Function Attrs: mustprogress uwtable
define void @_Z30gmx_ana_pos_reserve_velocitiesP13gmx_ana_pos_t(ptr nocapture noundef %0) local_unnamed_addr #0 {
  %2 = getelementptr inbounds i8, ptr %0, i64 144
  %3 = load i32, ptr %2, align 8
  %4 = icmp sgt i32 %3, 0
  br i1 %4, label %6, label %5

5:                                                ; preds = %1
  tail call void @_ZN3gmx8internal13assertHandlerEPKcS2_S2_S2_i(ptr noundef nonnull @.str.9, ptr noundef nonnull @.str.10, ptr noundef nonnull @"__PRETTY_FUNCTION__._ZZ30gmx_ana_pos_reserve_velocitiesP13gmx_ana_pos_tENK3$_0clEv", ptr noundef nonnull @.str.1, i32 noundef 114) #14
  unreachable

6:                                                ; preds = %1
  %7 = getelementptr inbounds i8, ptr %0, i64 8
  %8 = load ptr, ptr %7, align 8
  %.not = icmp eq ptr %8, null
  br i1 %.not, label %9, label %12

9:                                                ; preds = %6
  %10 = zext nneg i32 %3 to i64
  %11 = tail call noundef ptr @_Z11save_callocPKcS0_imm(ptr noundef nonnull @.str.5, ptr noundef nonnull @.str.1, i32 noundef 117, i64 noundef %10, i64 noundef 12)
  store ptr %11, ptr %7, align 8
  br label %12

12:                                               ; preds = %9, %6
  ret void
}